(dp0
S'gPCPoly'
p1
(dp2
S'Legendre'
p3
ccopy_reg
_reconstructor
p4
(cmatlab.mlarray
double
p5
c__builtin__
object
p6
Ntp7
Rp8
(dp9
S'_strides'
p10
(lp11
I1
aI0
asS'_python_type'
p12
c__builtin__
float
p13
sS'_size'
p14
(I0
I0
tp15
sS'_is_complex'
p16
I00
sS'_data'
p17
carray
array
p18
(S'd'
p19
(lp20
tp21
Rp22
sS'_start'
p23
I0
sbsS'Laguerre'
p24
g4
(g5
g6
Ntp25
Rp26
(dp27
g10
(lp28
I1
aI0
asg12
g13
sg14
(I0
I0
tp29
sg16
I00
sg17
g18
(g19
(lp30
tp31
Rp32
sg23
I0
sbsS'Hermite'
p33
g4
(g5
g6
Ntp34
Rp35
(dp36
g10
(lp37
I1
aI0
asg12
g13
sg14
(I0
I0
tp38
sg16
I00
sg17
g18
(g19
(lp39
tp40
Rp41
sg23
I0
sbsS'Krawchouk'
p42
g4
(g5
g6
Ntp43
Rp44
(dp45
g10
(lp46
I1
aI0
asg12
g13
sg14
(I0
I0
tp47
sg16
I00
sg17
g18
(g19
(lp48
tp49
Rp50
sg23
I0
sbsS'Binomial'
p51
g4
(g5
g6
Ntp52
Rp53
(dp54
g10
(lp55
I1
aI0
asg12
g13
sg14
(I0
I0
tp56
sg16
I00
sg17
g18
(g19
(lp57
tp58
Rp59
sg23
I0
sbsS'Jacobi'
p60
g4
(g5
g6
Ntp61
Rp62
(dp63
g10
(lp64
I1
aI0
asg12
g13
sg14
(I0
I0
tp65
sg16
I00
sg17
g18
(g19
(lp66
tp67
Rp68
sg23
I0
sbsS'Trancated_gaussian'
p69
(lp70
(lp71
F1.0
ag4
(g5
g6
Ntp72
Rp73
(dp74
g10
(lp75
I1
aI1
asg12
g13
sg14
(I1
I2
tp76
sg16
I00
sg17
g18
(g19
(lp77
F1.0621170989220612
aF-0.05867969963030407
atp78
Rp79
sg23
I0
sbag4
(g5
g6
Ntp80
Rp81
(dp82
g10
(lp83
I1
aI1
asg12
g13
sg14
(I1
I3
tp84
sg16
I00
sg17
g18
(g19
(lp85
F0.8621386001262527
aF-0.2745999172472499
aF-0.7517049116263552
atp86
Rp87
sg23
I0
sbag4
(g5
g6
Ntp88
Rp89
(dp90
g10
(lp91
I1
aI1
asg12
g13
sg14
(I1
I4
tp92
sg16
I00
sg17
g18
(g19
(lp93
F0.6128308071897387
aF-0.551944752568506
aF-1.3508058770435487
aF0.36244080069018897
atp94
Rp95
sg23
I0
sbaassS'pcIndex'
p96
g4
(g5
g6
Ntp97
Rp98
(dp99
g10
(lp100
I1
aI1
asg12
g13
sg14
(I1
I4
tp101
sg16
I00
sg17
g18
(g19
(lp102
F0.0
aF1.0
aF2.0
aF3.0
atp103
Rp104
sg23
I0
sbsS'gpcMapMatrix'
p105
g4
(g5
g6
Ntp106
Rp107
(dp108
g10
(lp109
I1
aI4
asg12
g13
sg14
(I4
I4
tp110
sg16
I00
sg17
g18
(g19
(lp111
F1.0
aF1.0
aF1.0
aF1.0
aF-0.3726384010575292
aF1.0522253844942424
aF-1.6567309710072888
aF2.6597892475097655
aF-0.5952023557049457
aF-0.09575669300732781
aF1.613158405749288
aF4.193284243961322
aF0.6976788922419115
aF-0.9530100907680241
aF-0.9419890784993872
aF3.5646660665002954
atp112
Rp113
sg23
I0
sbsS'paraDef'
p114
(dp115
S'type'
p116
(lp117
S'Truncated_gaussian'
p118
asS'pdfPara'
p119
(lp120
g4
(g5
g6
Ntp121
Rp122
(dp123
g10
(lp124
I1
aI1
asg12
g13
sg14
(I1
I3
tp125
sg16
I00
sg17
g18
(g19
(lp126
F2.0
aF1.0
aF0.0
atp127
Rp128
sg23
I0
sbassS'Scaled_SamplePoints'
p129
g4
(g5
g6
Ntp130
Rp131
(dp132
g10
(lp133
I1
aI1
asg12
g13
sg14
(I1
I4
tp134
sg16
I00
sg17
g18
(g19
(lp135
F1.7044029309519066
aF3.045934657536349
aF0.4954095240545122
aF4.559481388539017
atp136
Rp137
sg23
I0
sbsS'gpcMapMatrixInv'
p138
g4
(g5
g6
Ntp139
Rp140
(dp141
g10
(lp142
I1
aI4
asg12
g13
sg14
(I4
I4
tp143
sg16
I00
sg17
g18
(g19
(lp144
F0.5050808459050216
aF-0.18821251882283124
aF-0.3006253093041157
aF0.3523842450636232
aF0.3306248723282459
aF0.34789188340894817
aF-0.031659544400122905
aF-0.3150888395877081
aF0.13822882749327134
aF-0.22900797959412664
aF0.2229849949876391
aF-0.13021004583243773
aF0.026065454273461262
aF0.0693286150080098
aF0.10929985871659947
aF0.0929146403565226
atp145
Rp146
sg23
I0
sbsS'pcBasisNum'
p147
F4.0
sS'samplePoints'
p148
g4
(g5
g6
Ntp149
Rp150
(dp151
g10
(lp152
I1
aI1
asg12
g13
sg14
(I1
I4
tp153
sg16
I00
sg17
g18
(g19
(lp154
F-0.2955970690480934
aF1.0459346575363488
aF-1.5045904759454878
aF2.559481388539017
atp155
Rp156
sg23
I0
sbsS'pcOrder'
p157
F3.0
s.